; Function Attrs: mustprogress nounwind uwtable
define dso_local noundef ptr @_ZN4llvm15OpenMPIRBuilder14getGPUWarpSizeEv(ptr noundef nonnull align 8 dereferenceable(3104) %0) local_unnamed_addr #0 align 2 {
  %2 = alloca %"class.llvm::Twine", align 8
  %3 = getelementptr inbounds nuw i8, ptr %0, i64 512
  %4 = getelementptr inbounds nuw i8, ptr %0, i64 504
  %5 = load ptr, ptr %4, align 8
  %6 = tail call { ptr, ptr } @_ZN4llvm15OpenMPIRBuilder26getOrCreateRuntimeFunctionERNS_6ModuleENS_3omp15RuntimeFunctionE(ptr noundef nonnull align 8 dereferenceable(3104) %0, ptr noundef nonnull align 8 dereferenceable(857) %5, i32 noundef 16)
  %7 = extractvalue { ptr, ptr } %6, 0
  %8 = extractvalue { ptr, ptr } %6, 1
  %9 = getelementptr inbounds nuw i8, ptr %2, i64 32
  store i16 257, ptr %9, align 8
  %10 = call noundef ptr @_ZN4llvm13IRBuilderBase10CreateCallEPNS_12FunctionTypeEPNS_5ValueENS_8ArrayRefIS4_EERKNS_5TwineEPNS_6MDNodeE(ptr noundef nonnull align 8 dereferenceable(128) %3, ptr noundef %7, ptr noundef %8, ptr null, i64 0, ptr noundef nonnull align 8 dereferenceable(34) %2, ptr noundef null)
  ret ptr %10
}